target datalayout = "e-m:e-p270:32:32-p271:32:32-p272:64:64-i64:64-i128:128-f80:128-n8:16:32:64-S128"
target triple = "x86_64-pc-linux-gnu"

%struct.Node = type { i32 }
%struct.TypeName = type { i32, ptr, i32, i8, i8, ptr, i32, ptr, i32 }
%struct.JsonReturning = type { i32, ptr, i32, i32 }
%struct.JsonFormat = type { i32, i32, i32, i32 }
%struct.JsonOutput = type { i32, ptr, ptr }

@.str.41 = private unnamed_addr constant [13 x i8] c"parse_expr.c\00", align 1
@.str.142 = private unnamed_addr constant [61 x i8] c"returning SETOF types is not supported in SQL/JSON functions\00", align 1
@__func__.transformJsonOutput = private unnamed_addr constant [20 x i8] c"transformJsonOutput\00", align 1
@.str.143 = private unnamed_addr constant [62 x i8] c"returning pseudo-types is not supported in SQL/JSON functions\00", align 1
@.str.144 = private unnamed_addr constant [52 x i8] c"cannot use JSON format with non-string output types\00", align 1
@__func__.checkJsonOutputFormat = private unnamed_addr constant [22 x i8] c"checkJsonOutputFormat\00", align 1
@.str.145 = private unnamed_addr constant [52 x i8] c"cannot set JSON encoding for non-bytea output types\00", align 1
@.str.146 = private unnamed_addr constant [26 x i8] c"unsupported JSON encoding\00", align 1
@.str.147 = private unnamed_addr constant [38 x i8] c"Only UTF8 JSON encoding is supported.\00", align 1

; Function Attrs: nounwind uwtable
define internal void @checkJsonOutputFormat(ptr noundef %0, ptr noundef %1, i32 noundef %2, i1 noundef zeroext %3) #0 {
  %5 = alloca ptr, align 8
  %6 = alloca ptr, align 8
  %7 = alloca i32, align 4
  %8 = alloca i8, align 1
  %9 = alloca i8, align 1
  %10 = alloca i8, align 1
  %11 = alloca i32, align 4
  store ptr %0, ptr %5, align 8
  store ptr %1, ptr %6, align 8
  store i32 %2, ptr %7, align 4
  %12 = zext i1 %3 to i8
  store i8 %12, ptr %8, align 1
  %13 = load i8, ptr %8, align 1, !range !6, !noundef !7
  %14 = trunc i8 %13 to i1
  br i1 %14, label %52, label %15

15:                                               ; preds = %4
  %16 = load ptr, ptr %6, align 8
  %17 = getelementptr inbounds nuw %struct.JsonFormat, ptr %16, i32 0, i32 1
  %18 = load i32, ptr %17, align 4
  %19 = icmp ne i32 %18, 0
  br i1 %19, label %20, label %52

20:                                               ; preds = %15
  %21 = load i32, ptr %7, align 4
  %22 = icmp ne i32 %21, 17
  br i1 %22, label %23, label %52

23:                                               ; preds = %20
  %24 = load i32, ptr %7, align 4
  %25 = icmp ne i32 %24, 114
  br i1 %25, label %26, label %52

26:                                               ; preds = %23
  %27 = load i32, ptr %7, align 4
  %28 = icmp ne i32 %27, 3802
  br i1 %28, label %29, label %52

29:                                               ; preds = %26
  call void @llvm.lifetime.start.p0(i64 1, ptr %9) #8
  call void @llvm.lifetime.start.p0(i64 1, ptr %10) #8
  %30 = load i32, ptr %7, align 4
  call void @get_type_category_preferred(i32 noundef %30, ptr noundef %9, ptr noundef %10)
  %31 = load i8, ptr %9, align 1
  %32 = sext i8 %31 to i32
  %33 = icmp ne i32 %32, 83
  br i1 %33, label %34, label %51

34:                                               ; preds = %29
  br label %35

35:                                               ; preds = %34
  br i1 true, label %36, label %38

36:                                               ; preds = %35
  %37 = call zeroext i1 @errstart_cold(i32 noundef 21, ptr noundef null) #9
  br i1 %37, label %40, label %48

38:                                               ; preds = %35
  %39 = call zeroext i1 @errstart(i32 noundef 21, ptr noundef null)
  br i1 %39, label %40, label %48

40:                                               ; preds = %38, %36
  %41 = call i32 @errcode(i32 noundef 1088)
  %42 = load ptr, ptr %5, align 8
  %43 = load ptr, ptr %6, align 8
  %44 = getelementptr inbounds nuw %struct.JsonFormat, ptr %43, i32 0, i32 3
  %45 = load i32, ptr %44, align 4
  %46 = call i32 @parser_errposition(ptr noundef %42, i32 noundef %45)
  %47 = call i32 (ptr, ...) @errmsg(ptr noundef @.str.144)
  call void @errfinish(ptr noundef @.str.41, i32 noundef 3468, ptr noundef @__func__.checkJsonOutputFormat)
  br label %48

48:                                               ; preds = %40, %38, %36
  unreachable

49:                                               ; No predecessors!
  br label %50

50:                                               ; preds = %49
  br label %51

51:                                               ; preds = %50, %29
  call void @llvm.lifetime.end.p0(i64 1, ptr %10) #8
  call void @llvm.lifetime.end.p0(i64 1, ptr %9) #8
  br label %52

52:                                               ; preds = %51, %26, %23, %20, %15, %4
  %53 = load ptr, ptr %6, align 8
  %54 = getelementptr inbounds nuw %struct.JsonFormat, ptr %53, i32 0, i32 1
  %55 = load i32, ptr %54, align 4
  %56 = icmp eq i32 %55, 1
  br i1 %56, label %57, label %115

57:                                               ; preds = %52
  call void @llvm.lifetime.start.p0(i64 4, ptr %11) #8
  %58 = load ptr, ptr %6, align 8
  %59 = getelementptr inbounds nuw %struct.JsonFormat, ptr %58, i32 0, i32 2
  %60 = load i32, ptr %59, align 4
  %61 = icmp ne i32 %60, 0
  br i1 %61, label %62, label %66

62:                                               ; preds = %57
  %63 = load ptr, ptr %6, align 8
  %64 = getelementptr inbounds nuw %struct.JsonFormat, ptr %63, i32 0, i32 2
  %65 = load i32, ptr %64, align 4
  br label %67

66:                                               ; preds = %57
  br label %67

67:                                               ; preds = %66, %62
  %68 = phi i32 [ %65, %62 ], [ 1, %66 ]
  store i32 %68, ptr %11, align 4
  %69 = load i32, ptr %7, align 4
  %70 = icmp ne i32 %69, 17
  br i1 %70, label %71, label %93

71:                                               ; preds = %67
  %72 = load ptr, ptr %6, align 8
  %73 = getelementptr inbounds nuw %struct.JsonFormat, ptr %72, i32 0, i32 2
  %74 = load i32, ptr %73, align 4
  %75 = icmp ne i32 %74, 0
  br i1 %75, label %76, label %93

76:                                               ; preds = %71
  br label %77

77:                                               ; preds = %76
  br i1 true, label %78, label %80

78:                                               ; preds = %77
  %79 = call zeroext i1 @errstart_cold(i32 noundef 21, ptr noundef null) #9
  br i1 %79, label %82, label %90

80:                                               ; preds = %77
  %81 = call zeroext i1 @errstart(i32 noundef 21, ptr noundef null)
  br i1 %81, label %82, label %90

82:                                               ; preds = %80, %78
  %83 = call i32 @errcode(i32 noundef 1088)
  %84 = load ptr, ptr %5, align 8
  %85 = load ptr, ptr %6, align 8
  %86 = getelementptr inbounds nuw %struct.JsonFormat, ptr %85, i32 0, i32 3
  %87 = load i32, ptr %86, align 4
  %88 = call i32 @parser_errposition(ptr noundef %84, i32 noundef %87)
  %89 = call i32 (ptr, ...) @errmsg(ptr noundef @.str.145)
  call void @errfinish(ptr noundef @.str.41, i32 noundef 3481, ptr noundef @__func__.checkJsonOutputFormat)
  br label %90

90:                                               ; preds = %82, %80, %78
  unreachable

91:                                               ; No predecessors!
  br label %92

92:                                               ; preds = %91
  br label %93

93:                                               ; preds = %92, %71, %67
  %94 = load i32, ptr %11, align 4
  %95 = icmp ne i32 %94, 1
  br i1 %95, label %96, label %114

96:                                               ; preds = %93
  br label %97

97:                                               ; preds = %96
  br i1 true, label %98, label %100

98:                                               ; preds = %97
  %99 = call zeroext i1 @errstart_cold(i32 noundef 21, ptr noundef null) #9
  br i1 %99, label %102, label %111

100:                                              ; preds = %97
  %101 = call zeroext i1 @errstart(i32 noundef 21, ptr noundef null)
  br i1 %101, label %102, label %111

102:                                              ; preds = %100, %98
  %103 = call i32 @errcode(i32 noundef 1088)
  %104 = call i32 (ptr, ...) @errmsg(ptr noundef @.str.146)
  %105 = call i32 (ptr, ...) @errhint(ptr noundef @.str.147)
  %106 = load ptr, ptr %5, align 8
  %107 = load ptr, ptr %6, align 8
  %108 = getelementptr inbounds nuw %struct.JsonFormat, ptr %107, i32 0, i32 3
  %109 = load i32, ptr %108, align 4
  %110 = call i32 @parser_errposition(ptr noundef %106, i32 noundef %109)
  call void @errfinish(ptr noundef @.str.41, i32 noundef 3488, ptr noundef @__func__.checkJsonOutputFormat)
  br label %111

111:                                              ; preds = %102, %100, %98
  unreachable

112:                                              ; No predecessors!
  br label %113

113:                                              ; preds = %112
  br label %114

114:                                              ; preds = %113, %93
  call void @llvm.lifetime.end.p0(i64 4, ptr %11) #8
  br label %115

115:                                              ; preds = %114, %52
  ret void
}

; Function Attrs: inlinehint nounwind uwtable
define internal ptr @newNode(i64 noundef %0, i32 noundef %1) #4 {
  %3 = alloca i64, align 8
  %4 = alloca i32, align 4
  %5 = alloca ptr, align 8
  store i64 %0, ptr %3, align 8
  store i32 %1, ptr %4, align 4
  call void @llvm.lifetime.start.p0(i64 8, ptr %5) #8
  %6 = load i64, ptr %3, align 8
  %7 = call ptr @palloc0(i64 noundef %6)
  store ptr %7, ptr %5, align 8
  %8 = load i32, ptr %4, align 4
  %9 = load ptr, ptr %5, align 8
  %10 = getelementptr inbounds nuw %struct.Node, ptr %9, i32 0, i32 0
  store i32 %8, ptr %10, align 4
  %11 = load ptr, ptr %5, align 8
  call void @llvm.lifetime.end.p0(i64 8, ptr %5) #8
  ret ptr %11
}

; Function Attrs: nounwind uwtable
define internal ptr @transformJsonOutput(ptr noundef %0, ptr noundef %1, i1 noundef zeroext %2) #0 {
  %4 = alloca ptr, align 8
  %5 = alloca ptr, align 8
  %6 = alloca ptr, align 8
  %7 = alloca i8, align 1
  %8 = alloca ptr, align 8
  %9 = alloca i32, align 4
  store ptr %0, ptr %5, align 8
  store ptr %1, ptr %6, align 8
  %10 = zext i1 %2 to i8
  store i8 %10, ptr %7, align 1
  call void @llvm.lifetime.start.p0(i64 8, ptr %8) #8
  %11 = load ptr, ptr %6, align 8
  %12 = icmp ne ptr %11, null
  br i1 %12, label %23, label %13

13:                                               ; preds = %3
  %14 = call ptr @newNode(i64 noundef 24, i32 noundef 43)
  store ptr %14, ptr %8, align 8
  %15 = call ptr @makeJsonFormat(i32 noundef 0, i32 noundef 0, i32 noundef -1)
  %16 = load ptr, ptr %8, align 8
  %17 = getelementptr inbounds nuw %struct.JsonReturning, ptr %16, i32 0, i32 1
  store ptr %15, ptr %17, align 8
  %18 = load ptr, ptr %8, align 8
  %19 = getelementptr inbounds nuw %struct.JsonReturning, ptr %18, i32 0, i32 2
  store i32 0, ptr %19, align 8
  %20 = load ptr, ptr %8, align 8
  %21 = getelementptr inbounds nuw %struct.JsonReturning, ptr %20, i32 0, i32 3
  store i32 -1, ptr %21, align 4
  %22 = load ptr, ptr %8, align 8
  store ptr %22, ptr %4, align 8
  store i32 1, ptr %9, align 4
  br label %102

23:                                               ; preds = %3
  %24 = load ptr, ptr %6, align 8
  %25 = getelementptr inbounds nuw %struct.JsonOutput, ptr %24, i32 0, i32 2
  %26 = load ptr, ptr %25, align 8
  %27 = call ptr @copyObjectImpl(ptr noundef %26)
  store ptr %27, ptr %8, align 8
  %28 = load ptr, ptr %5, align 8
  %29 = load ptr, ptr %6, align 8
  %30 = getelementptr inbounds nuw %struct.JsonOutput, ptr %29, i32 0, i32 1
  %31 = load ptr, ptr %30, align 8
  %32 = load ptr, ptr %8, align 8
  %33 = getelementptr inbounds nuw %struct.JsonReturning, ptr %32, i32 0, i32 2
  %34 = load ptr, ptr %8, align 8
  %35 = getelementptr inbounds nuw %struct.JsonReturning, ptr %34, i32 0, i32 3
  call void @typenameTypeIdAndMod(ptr noundef %28, ptr noundef %31, ptr noundef %33, ptr noundef %35)
  %36 = load ptr, ptr %6, align 8
  %37 = getelementptr inbounds nuw %struct.JsonOutput, ptr %36, i32 0, i32 1
  %38 = load ptr, ptr %37, align 8
  %39 = getelementptr inbounds nuw %struct.TypeName, ptr %38, i32 0, i32 3
  %40 = load i8, ptr %39, align 4, !range !6, !noundef !7
  %41 = trunc i8 %40 to i1
  br i1 %41, label %42, label %54

42:                                               ; preds = %23
  br label %43

43:                                               ; preds = %42
  br i1 true, label %44, label %46

44:                                               ; preds = %43
  %45 = call zeroext i1 @errstart_cold(i32 noundef 21, ptr noundef null) #9
  br i1 %45, label %48, label %51

46:                                               ; preds = %43
  %47 = call zeroext i1 @errstart(i32 noundef 21, ptr noundef null)
  br i1 %47, label %48, label %51

48:                                               ; preds = %46, %44
  %49 = call i32 @errcode(i32 noundef 1088)
  %50 = call i32 (ptr, ...) @errmsg(ptr noundef @.str.142)
  call void @errfinish(ptr noundef @.str.41, i32 noundef 3524, ptr noundef @__func__.transformJsonOutput)
  br label %51

51:                                               ; preds = %48, %46, %44
  unreachable

52:                                               ; No predecessors!
  br label %53

53:                                               ; preds = %52
  br label %54

54:                                               ; preds = %53, %23
  %55 = load ptr, ptr %8, align 8
  %56 = getelementptr inbounds nuw %struct.JsonReturning, ptr %55, i32 0, i32 2
  %57 = load i32, ptr %56, align 8
  %58 = call signext i8 @get_typtype(i32 noundef %57)
  %59 = sext i8 %58 to i32
  %60 = icmp eq i32 %59, 112
  br i1 %60, label %61, label %73

61:                                               ; preds = %54
  br label %62

62:                                               ; preds = %61
  br i1 true, label %63, label %65

63:                                               ; preds = %62
  %64 = call zeroext i1 @errstart_cold(i32 noundef 21, ptr noundef null) #9
  br i1 %64, label %67, label %70

65:                                               ; preds = %62
  %66 = call zeroext i1 @errstart(i32 noundef 21, ptr noundef null)
  br i1 %66, label %67, label %70

67:                                               ; preds = %65, %63
  %68 = call i32 @errcode(i32 noundef 1088)
  %69 = call i32 (ptr, ...) @errmsg(ptr noundef @.str.143)
  call void @errfinish(ptr noundef @.str.41, i32 noundef 3529, ptr noundef @__func__.transformJsonOutput)
  br label %70

70:                                               ; preds = %67, %65, %63
  unreachable

71:                                               ; No predecessors!
  br label %72

72:                                               ; preds = %71
  br label %73

73:                                               ; preds = %72, %54
  %74 = load ptr, ptr %8, align 8
  %75 = getelementptr inbounds nuw %struct.JsonReturning, ptr %74, i32 0, i32 1
  %76 = load ptr, ptr %75, align 8
  %77 = getelementptr inbounds nuw %struct.JsonFormat, ptr %76, i32 0, i32 1
  %78 = load i32, ptr %77, align 4
  %79 = icmp eq i32 %78, 0
  br i1 %79, label %80, label %90

80:                                               ; preds = %73
  %81 = load ptr, ptr %8, align 8
  %82 = getelementptr inbounds nuw %struct.JsonReturning, ptr %81, i32 0, i32 2
  %83 = load i32, ptr %82, align 8
  %84 = icmp eq i32 %83, 3802
  %85 = select i1 %84, i32 2, i32 1
  %86 = load ptr, ptr %8, align 8
  %87 = getelementptr inbounds nuw %struct.JsonReturning, ptr %86, i32 0, i32 1
  %88 = load ptr, ptr %87, align 8
  %89 = getelementptr inbounds nuw %struct.JsonFormat, ptr %88, i32 0, i32 1
  store i32 %85, ptr %89, align 4
  br label %100

90:                                               ; preds = %73
  %91 = load ptr, ptr %5, align 8
  %92 = load ptr, ptr %8, align 8
  %93 = getelementptr inbounds nuw %struct.JsonReturning, ptr %92, i32 0, i32 1
  %94 = load ptr, ptr %93, align 8
  %95 = load ptr, ptr %8, align 8
  %96 = getelementptr inbounds nuw %struct.JsonReturning, ptr %95, i32 0, i32 2
  %97 = load i32, ptr %96, align 8
  %98 = load i8, ptr %7, align 1, !range !6, !noundef !7
  %99 = trunc i8 %98 to i1
  call void @checkJsonOutputFormat(ptr noundef %91, ptr noundef %94, i32 noundef %97, i1 noundef zeroext %99)
  br label %100

100:                                              ; preds = %90, %80
  %101 = load ptr, ptr %8, align 8
  store ptr %101, ptr %4, align 8
  store i32 1, ptr %9, align 4
  br label %102

102:                                              ; preds = %100, %13
  call void @llvm.lifetime.end.p0(i64 8, ptr %8) #8
  %103 = load ptr, ptr %4, align 8
  ret ptr %103
}