; Function Attrs: nounwind uwtable
define internal fastcc ptr @transformJsonOutput(ptr noundef %0, ptr noundef readonly captures(address_is_null) %1, i1 noundef zeroext %2) unnamed_addr #0 {
  %4 = alloca i8, align 1
  %5 = alloca i8, align 1
  %.not = icmp eq ptr %1, null
  br i1 %.not, label %6, label %12

6:                                                ; preds = %3
  %7 = tail call noundef ptr @palloc0(i64 noundef 24) #9
  store i32 43, ptr %7, align 4
  %8 = tail call ptr @makeJsonFormat(i32 noundef 0, i32 noundef 0, i32 noundef -1) #9
  %9 = getelementptr inbounds nuw i8, ptr %7, i64 8
  store ptr %8, ptr %9, align 8
  %10 = getelementptr inbounds nuw i8, ptr %7, i64 16
  store i32 0, ptr %10, align 8
  %11 = getelementptr inbounds nuw i8, ptr %7, i64 20
  store i32 -1, ptr %11, align 4
  br label %checkJsonOutputFormat.exit

12:                                               ; preds = %3
  %13 = getelementptr inbounds nuw i8, ptr %1, i64 16
  %14 = load ptr, ptr %13, align 8
  %15 = tail call ptr @copyObjectImpl(ptr noundef %14) #9
  %16 = getelementptr inbounds nuw i8, ptr %1, i64 8
  %17 = load ptr, ptr %16, align 8
  %18 = getelementptr inbounds nuw i8, ptr %15, i64 16
  %19 = getelementptr inbounds nuw i8, ptr %15, i64 20
  tail call void @typenameTypeIdAndMod(ptr noundef %0, ptr noundef %17, ptr noundef nonnull %18, ptr noundef nonnull %19) #9
  %20 = load ptr, ptr %16, align 8
  %21 = getelementptr inbounds nuw i8, ptr %20, i64 20
  %22 = load i8, ptr %21, align 4, !range !4, !noundef !5
  %23 = trunc nuw i8 %22 to i1
  br i1 %23, label %24, label %28

24:                                               ; preds = %12
  %25 = tail call zeroext i1 @errstart_cold(i32 noundef 21, ptr noundef null) #10
  tail call void @llvm.assume(i1 %25)
  %26 = tail call i32 @errcode(i32 noundef 1088) #9
  %27 = tail call i32 (ptr, ...) @errmsg(ptr noundef nonnull @.str.142) #9
  tail call void @errfinish(ptr noundef nonnull @.str.41, i32 noundef 3524, ptr noundef nonnull @__func__.transformJsonOutput) #9
  unreachable

28:                                               ; preds = %12
  %29 = load i32, ptr %18, align 8
  %30 = tail call signext i8 @get_typtype(i32 noundef %29) #9
  %31 = icmp eq i8 %30, 112
  br i1 %31, label %32, label %36

32:                                               ; preds = %28
  %33 = tail call zeroext i1 @errstart_cold(i32 noundef 21, ptr noundef null) #10
  tail call void @llvm.assume(i1 %33)
  %34 = tail call i32 @errcode(i32 noundef 1088) #9
  %35 = tail call i32 (ptr, ...) @errmsg(ptr noundef nonnull @.str.143) #9
  tail call void @errfinish(ptr noundef nonnull @.str.41, i32 noundef 3529, ptr noundef nonnull @__func__.transformJsonOutput) #9
  unreachable

36:                                               ; preds = %28
  %37 = getelementptr inbounds nuw i8, ptr %15, i64 8
  %38 = load ptr, ptr %37, align 8
  %39 = getelementptr inbounds nuw i8, ptr %38, i64 4
  %40 = load i32, ptr %39, align 4
  %41 = icmp eq i32 %40, 0
  %42 = load i32, ptr %18, align 8
  br i1 %41, label %43, label %46

43:                                               ; preds = %36
  %44 = icmp eq i32 %42, 3802
  %45 = select i1 %44, i32 2, i32 1
  store i32 %45, ptr %39, align 4
  br label %checkJsonOutputFormat.exit

46:                                               ; preds = %36
  br i1 %2, label %thread-pre-split, label %switch.early.test.i

switch.early.test.i:                              ; preds = %46
  switch i32 %42, label %47 [
    i32 3802, label %thread-pre-split
    i32 114, label %thread-pre-split
    i32 17, label %thread-pre-split
  ]

47:                                               ; preds = %switch.early.test.i
  call void @llvm.lifetime.start.p0(i64 1, ptr nonnull %4) #9
  call void @llvm.lifetime.start.p0(i64 1, ptr nonnull %5) #9
  call void @get_type_category_preferred(i32 noundef %42, ptr noundef nonnull %4, ptr noundef nonnull %5) #9
  %48 = load i8, ptr %4, align 1
  %.not.i = icmp eq i8 %48, 83
  br i1 %.not.i, label %56, label %49

49:                                               ; preds = %47
  %50 = call zeroext i1 @errstart_cold(i32 noundef 21, ptr noundef null) #10
  call void @llvm.assume(i1 %50)
  %51 = call i32 @errcode(i32 noundef 1088) #9
  %52 = getelementptr inbounds nuw i8, ptr %38, i64 12
  %53 = load i32, ptr %52, align 4
  %54 = call i32 @parser_errposition(ptr noundef %0, i32 noundef %53) #9
  %55 = call i32 (ptr, ...) @errmsg(ptr noundef nonnull @.str.144) #9
  call void @errfinish(ptr noundef nonnull @.str.41, i32 noundef 3468, ptr noundef nonnull @__func__.checkJsonOutputFormat) #9
  unreachable

56:                                               ; preds = %47
  call void @llvm.lifetime.end.p0(i64 1, ptr nonnull %5) #9
  call void @llvm.lifetime.end.p0(i64 1, ptr nonnull %4) #9
  %.pr.pre = load i32, ptr %39, align 4
  br label %thread-pre-split

thread-pre-split:                                 ; preds = %56, %switch.early.test.i, %switch.early.test.i, %switch.early.test.i, %46
  %57 = phi i32 [ %40, %46 ], [ %40, %switch.early.test.i ], [ %40, %switch.early.test.i ], [ %40, %switch.early.test.i ], [ %.pr.pre, %56 ]
  %58 = icmp eq i32 %57, 1
  br i1 %58, label %59, label %checkJsonOutputFormat.exit

59:                                               ; preds = %thread-pre-split
  %60 = getelementptr inbounds nuw i8, ptr %38, i64 8
  %61 = load i32, ptr %60, align 4
  %.not24.i = icmp eq i32 %42, 17
  br i1 %.not24.i, label %70, label %62

62:                                               ; preds = %59
  %.not25.i = icmp eq i32 %61, 0
  br i1 %.not25.i, label %checkJsonOutputFormat.exit, label %63

63:                                               ; preds = %62
  %64 = call zeroext i1 @errstart_cold(i32 noundef 21, ptr noundef null) #10
  call void @llvm.assume(i1 %64)
  %65 = call i32 @errcode(i32 noundef 1088) #9
  %66 = getelementptr inbounds nuw i8, ptr %38, i64 12
  %67 = load i32, ptr %66, align 4
  %68 = call i32 @parser_errposition(ptr noundef %0, i32 noundef %67) #9
  %69 = call i32 (ptr, ...) @errmsg(ptr noundef nonnull @.str.145) #9
  call void @errfinish(ptr noundef nonnull @.str.41, i32 noundef 3481, ptr noundef nonnull @__func__.checkJsonOutputFormat) #9
  unreachable

70:                                               ; preds = %59
  %switch.i = icmp ult i32 %61, 2
  br i1 %switch.i, label %checkJsonOutputFormat.exit, label %71

71:                                               ; preds = %70
  %72 = call zeroext i1 @errstart_cold(i32 noundef 21, ptr noundef null) #10
  call void @llvm.assume(i1 %72)
  %73 = call i32 @errcode(i32 noundef 1088) #9
  %74 = call i32 (ptr, ...) @errmsg(ptr noundef nonnull @.str.146) #9
  %75 = call i32 (ptr, ...) @errhint(ptr noundef nonnull @.str.147) #9
  %76 = getelementptr inbounds nuw i8, ptr %38, i64 12
  %77 = load i32, ptr %76, align 4
  %78 = call i32 @parser_errposition(ptr noundef %0, i32 noundef %77) #9
  call void @errfinish(ptr noundef nonnull @.str.41, i32 noundef 3488, ptr noundef nonnull @__func__.checkJsonOutputFormat) #9
  unreachable

checkJsonOutputFormat.exit:                       ; preds = %70, %62, %thread-pre-split, %43, %6
  %.0 = phi ptr [ %7, %6 ], [ %15, %43 ], [ %15, %thread-pre-split ], [ %15, %62 ], [ %15, %70 ]
  ret ptr %.0
}